target datalayout = "e-m:e-p270:32:32-p271:32:32-p272:64:64-i64:64-i128:128-f80:128-n8:16:32:64-S128"
target triple = "x86_64-pc-linux-gnu"

@hf_dsmcc_un_sess_nsap_afi = internal global i32 0, align 4
@hf_dsmcc_un_sess_nsap_idi = internal global i32 0, align 4
@hf_dsmcc_un_sess_nsap_ho_dsp = internal global i32 0, align 4
@hf_dsmcc_un_sess_nsap_esi = internal global i32 0, align 4
@hf_dsmcc_un_sess_nsap_sel = internal global i32 0, align 4

; Function Attrs: null_pointer_is_valid sspstrong uwtable
define internal i32 @dissect_dsmcc_un_session_nsap(ptr noundef %0, i32 noundef %1, ptr noundef %2, ptr noundef %3) #0 {
  %5 = alloca ptr, align 8
  %6 = alloca i32, align 4
  %7 = alloca ptr, align 8
  %8 = alloca ptr, align 8
  %9 = alloca i32, align 4
  store ptr %0, ptr %5, align 8
  store i32 %1, ptr %6, align 4
  store ptr %2, ptr %7, align 8
  store ptr %3, ptr %8, align 8
  call void @llvm.lifetime.start.p0(i64 4, ptr %9) #4
  %10 = load i32, ptr %6, align 4
  store i32 %10, ptr %9, align 4
  %11 = load ptr, ptr %8, align 8
  %12 = load i32, ptr @hf_dsmcc_un_sess_nsap_afi, align 4
  %13 = load ptr, ptr %5, align 8
  %14 = load i32, ptr %6, align 4
  %15 = call ptr @proto_tree_add_item(ptr noundef %11, i32 noundef %12, ptr noundef %13, i32 noundef %14, i32 noundef 1, i32 noundef 0)
  %16 = load i32, ptr %6, align 4
  %17 = add i32 %16, 1
  store i32 %17, ptr %6, align 4
  %18 = load ptr, ptr %8, align 8
  %19 = load i32, ptr @hf_dsmcc_un_sess_nsap_idi, align 4
  %20 = load ptr, ptr %5, align 8
  %21 = load i32, ptr %6, align 4
  %22 = call ptr @proto_tree_add_item(ptr noundef %18, i32 noundef %19, ptr noundef %20, i32 noundef %21, i32 noundef 8, i32 noundef 0)
  %23 = load i32, ptr %6, align 4
  %24 = add i32 %23, 8
  store i32 %24, ptr %6, align 4
  %25 = load ptr, ptr %8, align 8
  %26 = load i32, ptr @hf_dsmcc_un_sess_nsap_ho_dsp, align 4
  %27 = load ptr, ptr %5, align 8
  %28 = load i32, ptr %6, align 4
  %29 = call ptr @proto_tree_add_item(ptr noundef %25, i32 noundef %26, ptr noundef %27, i32 noundef %28, i32 noundef 4, i32 noundef 0)
  %30 = load i32, ptr %6, align 4
  %31 = add i32 %30, 4
  store i32 %31, ptr %6, align 4
  %32 = load ptr, ptr %8, align 8
  %33 = load i32, ptr @hf_dsmcc_un_sess_nsap_esi, align 4
  %34 = load ptr, ptr %5, align 8
  %35 = load i32, ptr %6, align 4
  %36 = call ptr @proto_tree_add_item(ptr noundef %32, i32 noundef %33, ptr noundef %34, i32 noundef %35, i32 noundef 6, i32 noundef 0)
  %37 = load i32, ptr %6, align 4
  %38 = add i32 %37, 6
  store i32 %38, ptr %6, align 4
  %39 = load ptr, ptr %8, align 8
  %40 = load i32, ptr @hf_dsmcc_un_sess_nsap_sel, align 4
  %41 = load ptr, ptr %5, align 8
  %42 = load i32, ptr %6, align 4
  %43 = call ptr @proto_tree_add_item(ptr noundef %39, i32 noundef %40, ptr noundef %41, i32 noundef %42, i32 noundef 1, i32 noundef 0)
  %44 = load i32, ptr %6, align 4
  %45 = add i32 %44, 1
  store i32 %45, ptr %6, align 4
  %46 = load i32, ptr %6, align 4
  %47 = load i32, ptr %9, align 4
  %48 = sub i32 %46, %47
  call void @llvm.lifetime.end.p0(i64 4, ptr %9) #4
  ret i32 %48
}