; Function Attrs: null_pointer_is_valid sspstrong uwtable
define internal fastcc noundef i32 @dissect_dsmcc_un_session_nsap(ptr noundef %0, i32 noundef %1, ptr noundef %2) unnamed_addr #0 {
  %4 = load i32, ptr @hf_dsmcc_un_sess_nsap_afi, align 4
  %5 = tail call ptr @proto_tree_add_item(ptr noundef %2, i32 noundef %4, ptr noundef %0, i32 noundef %1, i32 noundef 1, i32 noundef 0)
  %6 = add i32 %1, 1
  %7 = load i32, ptr @hf_dsmcc_un_sess_nsap_idi, align 4
  %8 = tail call ptr @proto_tree_add_item(ptr noundef %2, i32 noundef %7, ptr noundef %0, i32 noundef %6, i32 noundef 8, i32 noundef 0)
  %9 = add i32 %1, 9
  %10 = load i32, ptr @hf_dsmcc_un_sess_nsap_ho_dsp, align 4
  %11 = tail call ptr @proto_tree_add_item(ptr noundef %2, i32 noundef %10, ptr noundef %0, i32 noundef %9, i32 noundef 4, i32 noundef 0)
  %12 = add i32 %1, 13
  %13 = load i32, ptr @hf_dsmcc_un_sess_nsap_esi, align 4
  %14 = tail call ptr @proto_tree_add_item(ptr noundef %2, i32 noundef %13, ptr noundef %0, i32 noundef %12, i32 noundef 6, i32 noundef 0)
  %15 = add i32 %1, 19
  %16 = load i32, ptr @hf_dsmcc_un_sess_nsap_sel, align 4
  %17 = tail call ptr @proto_tree_add_item(ptr noundef %2, i32 noundef %16, ptr noundef %0, i32 noundef %15, i32 noundef 1, i32 noundef 0)
  ret i32 20
}